target datalayout = "e-m:e-p270:32:32-p271:32:32-p272:64:64-i64:64-i128:128-f80:128-n8:16:32:64-S128"
target triple = "x86_64-pc-linux-gnu"

%struct.STEAM_RemoteStorage = type { ptr, ptr, ptr, ptr, ptr, ptr, ptr, ptr, ptr, ptr }

@.str.21 = private unnamed_addr constant [31 x i8] c"SteamRemoteStorage unavailable\00", align 1
@.str.27 = private unnamed_addr constant [53 x i8] c"SteamRemoteStorage only supports INT32_MAX read size\00", align 1
@.str.28 = private unnamed_addr constant [47 x i8] c"SteamAPI_ISteamRemoteStorage_FileRead() failed\00", align 1

; Function Attrs: nounwind uwtable
define internal zeroext i1 @STEAM_ReadStorageFile(ptr noundef %0, ptr noundef %1, ptr noundef %2, i64 noundef %3) #0 {
  %5 = alloca i1, align 1
  %6 = alloca ptr, align 8
  %7 = alloca ptr, align 8
  %8 = alloca ptr, align 8
  %9 = alloca i64, align 8
  %10 = alloca i8, align 1
  %11 = alloca ptr, align 8
  %12 = alloca ptr, align 8
  %13 = alloca i32, align 4
  store ptr %0, ptr %6, align 8
  store ptr %1, ptr %7, align 8
  store ptr %2, ptr %8, align 8
  store i64 %3, ptr %9, align 8
  call void @llvm.lifetime.start.p0(i64 1, ptr %10) #4
  store i8 0, ptr %10, align 1
  call void @llvm.lifetime.start.p0(i64 8, ptr %11) #4
  %14 = load ptr, ptr %6, align 8
  store ptr %14, ptr %11, align 8
  call void @llvm.lifetime.start.p0(i64 8, ptr %12) #4
  %15 = load ptr, ptr %11, align 8
  %16 = getelementptr inbounds nuw %struct.STEAM_RemoteStorage, ptr %15, i32 0, i32 1
  %17 = load ptr, ptr %16, align 8
  %18 = call ptr %17()
  store ptr %18, ptr %12, align 8
  %19 = load ptr, ptr %12, align 8
  %20 = icmp eq ptr %19, null
  br i1 %20, label %21, label %23

21:                                               ; preds = %4
  %22 = call zeroext i1 (ptr, ...) @SDL_SetError_REAL(ptr noundef @.str.21)
  store i1 %22, ptr %5, align 1
  store i32 1, ptr %13, align 4
  br label %47

23:                                               ; preds = %4
  %24 = load i64, ptr %9, align 8
  %25 = icmp ugt i64 %24, 2147483647
  br i1 %25, label %26, label %28

26:                                               ; preds = %23
  %27 = call zeroext i1 (ptr, ...) @SDL_SetError_REAL(ptr noundef @.str.27)
  store i1 %27, ptr %5, align 1
  store i32 1, ptr %13, align 4
  br label %47

28:                                               ; preds = %23
  %29 = load ptr, ptr %11, align 8
  %30 = getelementptr inbounds nuw %struct.STEAM_RemoteStorage, ptr %29, i32 0, i32 7
  %31 = load ptr, ptr %30, align 8
  %32 = load ptr, ptr %12, align 8
  %33 = load ptr, ptr %7, align 8
  %34 = load ptr, ptr %8, align 8
  %35 = load i64, ptr %9, align 8
  %36 = trunc i64 %35 to i32
  %37 = call i32 %31(ptr noundef %32, ptr noundef %33, ptr noundef %34, i32 noundef %36)
  %38 = sext i32 %37 to i64
  %39 = load i64, ptr %9, align 8
  %40 = icmp eq i64 %38, %39
  br i1 %40, label %41, label %42

41:                                               ; preds = %28
  store i8 1, ptr %10, align 1
  br label %44

42:                                               ; preds = %28
  %43 = call zeroext i1 (ptr, ...) @SDL_SetError_REAL(ptr noundef @.str.28)
  br label %44

44:                                               ; preds = %42, %41
  %45 = load i8, ptr %10, align 1, !range !3, !noundef !4
  %46 = trunc i8 %45 to i1
  store i1 %46, ptr %5, align 1
  store i32 1, ptr %13, align 4
  br label %47

47:                                               ; preds = %44, %26, %21
  call void @llvm.lifetime.end.p0(i64 8, ptr %12) #4
  call void @llvm.lifetime.end.p0(i64 8, ptr %11) #4
  call void @llvm.lifetime.end.p0(i64 1, ptr %10) #4
  %48 = load i1, ptr %5, align 1
  ret i1 %48
}