; Function Attrs: nounwind uwtable
define internal zeroext i1 @STEAM_ReadStorageFile(ptr noundef readonly captures(none) %0, ptr noundef %1, ptr noundef %2, i64 noundef %3) #0 {
  %5 = getelementptr inbounds nuw i8, ptr %0, i64 8
  %6 = load ptr, ptr %5, align 8
  %7 = tail call ptr %6() #5
  %8 = icmp eq ptr %7, null
  br i1 %8, label %9, label %11

9:                                                ; preds = %4
  %10 = tail call zeroext i1 (ptr, ...) @SDL_SetError_REAL(ptr noundef nonnull @.str.21) #5
  br label %24

11:                                               ; preds = %4
  %12 = icmp ugt i64 %3, 2147483647
  br i1 %12, label %13, label %15

13:                                               ; preds = %11
  %14 = tail call zeroext i1 (ptr, ...) @SDL_SetError_REAL(ptr noundef nonnull @.str.27) #5
  br label %24

15:                                               ; preds = %11
  %16 = getelementptr inbounds nuw i8, ptr %0, i64 56
  %17 = load ptr, ptr %16, align 8
  %18 = trunc nuw nsw i64 %3 to i32
  %19 = tail call i32 %17(ptr noundef nonnull %7, ptr noundef %1, ptr noundef %2, i32 noundef %18) #5
  %20 = sext i32 %19 to i64
  %21 = icmp eq i64 %3, %20
  br i1 %21, label %24, label %22

22:                                               ; preds = %15
  %23 = tail call zeroext i1 (ptr, ...) @SDL_SetError_REAL(ptr noundef nonnull @.str.28) #5
  br label %24

24:                                               ; preds = %22, %15, %13, %9
  %.0 = phi i1 [ %10, %9 ], [ %14, %13 ], [ true, %15 ], [ false, %22 ]
  ret i1 %.0
}